target datalayout = "e-m:e-p270:32:32-p271:32:32-p272:64:64-i64:64-i128:128-f80:128-n8:16:32:64-S128"
target triple = "x86_64-pc-linux-gnu"

%struct.expert_field = type { i32, i32 }

@hf_wisun_usie_channel_control = internal global i32 0, align 4
@hf_wisun_usie_regulatory_domain = internal global i32 0, align 4
@hf_wisun_usie_operating_class = internal global i32 0, align 4
@hf_wisun_usie_channel_plan_id = internal global i32 0, align 4
@hf_wisun_usie_explicit = internal global i32 0, align 4
@hf_wisun_usie_number_channels = internal global i32 0, align 4
@hf_wisun_usie_fixed_channel = internal global i32 0, align 4
@hf_wisun_usie_hop_count = internal global i32 0, align 4
@hf_wisun_usie_hop_list = internal global i32 0, align 4
@hf_wisun_usie_number_ranges = internal global i32 0, align 4
@hf_wisun_usie_exclude_range_start = internal global i32 0, align 4
@hf_wisun_usie_exclude_range_end = internal global i32 0, align 4
@hf_wisun_usie_exclude_mask = internal global i32 0, align 4
@ett_wisun_usie_channel_control = internal global i32 0, align 4
@ett_wisun_usie_explicit = internal global i32 0, align 4
@ei_wisun_usie_channel_plan_invalid = internal global %struct.expert_field zeroinitializer, align 4
@ei_wisun_usie_explicit_reserved_bits_not_zero = internal global %struct.expert_field zeroinitializer, align 4
@dissect_wisun_schedule_common.fields_usie_channel = internal constant [4 x ptr] [ptr @hf_wisun_usie_channel_plan, ptr @hf_wisun_usie_channel_function, ptr @hf_wisun_usie_channel_exclude, ptr null], align 16
@dissect_wisun_schedule_common.fields_usie_channel_plan_explicit = internal constant [4 x ptr] [ptr @hf_wisun_usie_explicit_frequency, ptr @hf_wisun_usie_explicit_spacing, ptr @hf_wisun_usie_explicit_reserved, ptr null], align 16

; Function Attrs: null_pointer_is_valid sspstrong uwtable
define internal i32 @dissect_wisun_schedule_common(ptr noundef %0, ptr noundef %1, i32 noundef %2, ptr noundef %3) #0 {
  %5 = alloca i32, align 4
  %6 = alloca ptr, align 8
  %7 = alloca ptr, align 8
  %8 = alloca i32, align 4
  %9 = alloca ptr, align 8
  %10 = alloca i32, align 4
  %11 = alloca ptr, align 8
  %12 = alloca i8, align 1
  %13 = alloca i32, align 4
  store ptr %0, ptr %6, align 8
  store ptr %1, ptr %7, align 8
  store i32 %2, ptr %8, align 4
  store ptr %3, ptr %9, align 8
  call void @llvm.lifetime.start.p0(i64 4, ptr %10) #7
  call void @llvm.lifetime.start.p0(i64 8, ptr %11) #7
  call void @llvm.lifetime.start.p0(i64 1, ptr %12) #7
  %14 = load ptr, ptr %6, align 8
  %15 = load i32, ptr %8, align 4
  %16 = call zeroext i8 @tvb_get_uint8(ptr noundef %14, i32 noundef %15)
  store i8 %16, ptr %12, align 1
  %17 = load ptr, ptr %9, align 8
  %18 = load ptr, ptr %6, align 8
  %19 = load i32, ptr %8, align 4
  %20 = load i32, ptr @hf_wisun_usie_channel_control, align 4
  %21 = load i32, ptr @ett_wisun_usie_channel_control, align 4
  %22 = call ptr @proto_tree_add_bitmask_with_flags(ptr noundef %17, ptr noundef %18, i32 noundef %19, i32 noundef %20, i32 noundef %21, ptr noundef @dissect_wisun_schedule_common.fields_usie_channel, i32 noundef -2147483648, i32 noundef 0)
  %23 = load i32, ptr %8, align 4
  %24 = add i32 %23, 1
  store i32 %24, ptr %8, align 4
  %25 = load i8, ptr %12, align 1
  %26 = zext i8 %25 to i32
  %27 = and i32 %26, 7
  %28 = ashr i32 %27, 0
  switch i32 %28, label %88 [
    i32 0, label %29
    i32 1, label %44
    i32 2, label %73
  ]

29:                                               ; preds = %4
  %30 = load ptr, ptr %9, align 8
  %31 = load i32, ptr @hf_wisun_usie_regulatory_domain, align 4
  %32 = load ptr, ptr %6, align 8
  %33 = load i32, ptr %8, align 4
  %34 = call ptr @proto_tree_add_item(ptr noundef %30, i32 noundef %31, ptr noundef %32, i32 noundef %33, i32 noundef 1, i32 noundef -2147483648)
  %35 = load i32, ptr %8, align 4
  %36 = add i32 %35, 1
  store i32 %36, ptr %8, align 4
  %37 = load ptr, ptr %9, align 8
  %38 = load i32, ptr @hf_wisun_usie_operating_class, align 4
  %39 = load ptr, ptr %6, align 8
  %40 = load i32, ptr %8, align 4
  %41 = call ptr @proto_tree_add_item(ptr noundef %37, i32 noundef %38, ptr noundef %39, i32 noundef %40, i32 noundef 1, i32 noundef -2147483648)
  %42 = load i32, ptr %8, align 4
  %43 = add i32 %42, 1
  store i32 %43, ptr %8, align 4
  br label %94

44:                                               ; preds = %4
  %45 = load ptr, ptr %9, align 8
  %46 = load ptr, ptr %6, align 8
  %47 = load i32, ptr %8, align 4
  %48 = load i32, ptr @hf_wisun_usie_explicit, align 4
  %49 = load i32, ptr @ett_wisun_usie_explicit, align 4
  %50 = call ptr @proto_tree_add_bitmask(ptr noundef %45, ptr noundef %46, i32 noundef %47, i32 noundef %48, i32 noundef %49, ptr noundef @dissect_wisun_schedule_common.fields_usie_channel_plan_explicit, i32 noundef -2147483648)
  store ptr %50, ptr %11, align 8
  %51 = load i32, ptr %8, align 4
  %52 = add i32 %51, 3
  store i32 %52, ptr %8, align 4
  %53 = load ptr, ptr %6, align 8
  %54 = load i32, ptr %8, align 4
  %55 = call zeroext i8 @tvb_get_uint8(ptr noundef %53, i32 noundef %54)
  %56 = zext i8 %55 to i32
  %57 = and i32 %56, 240
  %58 = icmp ne i32 %57, 0
  br i1 %58, label %59, label %63

59:                                               ; preds = %44
  %60 = load ptr, ptr %7, align 8
  %61 = load ptr, ptr %11, align 8
  %62 = call ptr @expert_add_info(ptr noundef %60, ptr noundef %61, ptr noundef @ei_wisun_usie_explicit_reserved_bits_not_zero)
  br label %63

63:                                               ; preds = %59, %44
  %64 = load i32, ptr %8, align 4
  %65 = add i32 %64, 1
  store i32 %65, ptr %8, align 4
  %66 = load ptr, ptr %9, align 8
  %67 = load i32, ptr @hf_wisun_usie_number_channels, align 4
  %68 = load ptr, ptr %6, align 8
  %69 = load i32, ptr %8, align 4
  %70 = call ptr @proto_tree_add_item(ptr noundef %66, i32 noundef %67, ptr noundef %68, i32 noundef %69, i32 noundef 2, i32 noundef -2147483648)
  %71 = load i32, ptr %8, align 4
  %72 = add i32 %71, 2
  store i32 %72, ptr %8, align 4
  br label %94

73:                                               ; preds = %4
  %74 = load ptr, ptr %9, align 8
  %75 = load i32, ptr @hf_wisun_usie_regulatory_domain, align 4
  %76 = load ptr, ptr %6, align 8
  %77 = load i32, ptr %8, align 4
  %78 = call ptr @proto_tree_add_item(ptr noundef %74, i32 noundef %75, ptr noundef %76, i32 noundef %77, i32 noundef 1, i32 noundef -2147483648)
  %79 = load i32, ptr %8, align 4
  %80 = add i32 %79, 1
  store i32 %80, ptr %8, align 4
  %81 = load ptr, ptr %9, align 8
  %82 = load i32, ptr @hf_wisun_usie_channel_plan_id, align 4
  %83 = load ptr, ptr %6, align 8
  %84 = load i32, ptr %8, align 4
  %85 = call ptr @proto_tree_add_item(ptr noundef %81, i32 noundef %82, ptr noundef %83, i32 noundef %84, i32 noundef 1, i32 noundef -2147483648)
  %86 = load i32, ptr %8, align 4
  %87 = add i32 %86, 1
  store i32 %87, ptr %8, align 4
  br label %94

88:                                               ; preds = %4
  %89 = load ptr, ptr %7, align 8
  %90 = load ptr, ptr %9, align 8
  %91 = call ptr @expert_add_info(ptr noundef %89, ptr noundef %90, ptr noundef @ei_wisun_usie_channel_plan_invalid)
  %92 = load ptr, ptr %6, align 8
  %93 = call i32 @tvb_reported_length(ptr noundef %92)
  store i32 %93, ptr %5, align 4
  store i32 1, ptr %13, align 4
  br label %187

94:                                               ; preds = %73, %63, %29
  %95 = load i8, ptr %12, align 1
  %96 = zext i8 %95 to i32
  %97 = and i32 %96, 56
  %98 = ashr i32 %97, 3
  switch i32 %98, label %132 [
    i32 0, label %99
    i32 3, label %107
  ]

99:                                               ; preds = %94
  %100 = load ptr, ptr %9, align 8
  %101 = load i32, ptr @hf_wisun_usie_fixed_channel, align 4
  %102 = load ptr, ptr %6, align 8
  %103 = load i32, ptr %8, align 4
  %104 = call ptr @proto_tree_add_item(ptr noundef %100, i32 noundef %101, ptr noundef %102, i32 noundef %103, i32 noundef 2, i32 noundef -2147483648)
  %105 = load i32, ptr %8, align 4
  %106 = add i32 %105, 2
  store i32 %106, ptr %8, align 4
  br label %133

107:                                              ; preds = %94
  %108 = load ptr, ptr %6, align 8
  %109 = load i32, ptr %8, align 4
  %110 = call zeroext i8 @tvb_get_uint8(ptr noundef %108, i32 noundef %109)
  %111 = zext i8 %110 to i32
  store i32 %111, ptr %10, align 4
  %112 = load ptr, ptr %9, align 8
  %113 = load i32, ptr @hf_wisun_usie_hop_count, align 4
  %114 = load ptr, ptr %6, align 8
  %115 = load i32, ptr %8, align 4
  %116 = call ptr @proto_tree_add_item(ptr noundef %112, i32 noundef %113, ptr noundef %114, i32 noundef %115, i32 noundef 1, i32 noundef -2147483648)
  %117 = load i32, ptr %8, align 4
  %118 = add i32 %117, 1
  store i32 %118, ptr %8, align 4
  br label %119

119:                                              ; preds = %123, %107
  %120 = load i32, ptr %10, align 4
  %121 = add i32 %120, -1
  store i32 %121, ptr %10, align 4
  %122 = icmp ne i32 %120, 0
  br i1 %122, label %123, label %131

123:                                              ; preds = %119
  %124 = load ptr, ptr %9, align 8
  %125 = load i32, ptr @hf_wisun_usie_hop_list, align 4
  %126 = load ptr, ptr %6, align 8
  %127 = load i32, ptr %8, align 4
  %128 = call ptr @proto_tree_add_item(ptr noundef %124, i32 noundef %125, ptr noundef %126, i32 noundef %127, i32 noundef 1, i32 noundef -2147483648)
  %129 = load i32, ptr %8, align 4
  %130 = add i32 %129, 1
  store i32 %130, ptr %8, align 4
  br label %119, !llvm.loop !13

131:                                              ; preds = %119
  br label %133

132:                                              ; preds = %94
  br label %133

133:                                              ; preds = %132, %131, %99
  %134 = load i8, ptr %12, align 1
  %135 = zext i8 %134 to i32
  %136 = and i32 %135, 192
  %137 = ashr i32 %136, 6
  switch i32 %137, label %184 [
    i32 1, label %138
    i32 2, label %171
  ]

138:                                              ; preds = %133
  %139 = load ptr, ptr %6, align 8
  %140 = load i32, ptr %8, align 4
  %141 = call zeroext i8 @tvb_get_uint8(ptr noundef %139, i32 noundef %140)
  %142 = zext i8 %141 to i32
  store i32 %142, ptr %10, align 4
  %143 = load ptr, ptr %9, align 8
  %144 = load i32, ptr @hf_wisun_usie_number_ranges, align 4
  %145 = load ptr, ptr %6, align 8
  %146 = load i32, ptr %8, align 4
  %147 = call ptr @proto_tree_add_item(ptr noundef %143, i32 noundef %144, ptr noundef %145, i32 noundef %146, i32 noundef 1, i32 noundef -2147483648)
  %148 = load i32, ptr %8, align 4
  %149 = add i32 %148, 1
  store i32 %149, ptr %8, align 4
  br label %150

150:                                              ; preds = %153, %138
  %151 = load i32, ptr %10, align 4
  %152 = icmp ne i32 %151, 0
  br i1 %152, label %153, label %170

153:                                              ; preds = %150
  %154 = load ptr, ptr %9, align 8
  %155 = load i32, ptr @hf_wisun_usie_exclude_range_start, align 4
  %156 = load ptr, ptr %6, align 8
  %157 = load i32, ptr %8, align 4
  %158 = call ptr @proto_tree_add_item(ptr noundef %154, i32 noundef %155, ptr noundef %156, i32 noundef %157, i32 noundef 2, i32 noundef -2147483648)
  %159 = load i32, ptr %8, align 4
  %160 = add i32 %159, 2
  store i32 %160, ptr %8, align 4
  %161 = load ptr, ptr %9, align 8
  %162 = load i32, ptr @hf_wisun_usie_exclude_range_end, align 4
  %163 = load ptr, ptr %6, align 8
  %164 = load i32, ptr %8, align 4
  %165 = call ptr @proto_tree_add_item(ptr noundef %161, i32 noundef %162, ptr noundef %163, i32 noundef %164, i32 noundef 2, i32 noundef -2147483648)
  %166 = load i32, ptr %8, align 4
  %167 = add i32 %166, 2
  store i32 %167, ptr %8, align 4
  %168 = load i32, ptr %10, align 4
  %169 = add i32 %168, -1
  store i32 %169, ptr %10, align 4
  br label %150, !llvm.loop !14

170:                                              ; preds = %150
  br label %185

171:                                              ; preds = %133
  %172 = load ptr, ptr %6, align 8
  %173 = load i32, ptr %8, align 4
  %174 = call i32 @tvb_reported_length_remaining(ptr noundef %172, i32 noundef %173)
  store i32 %174, ptr %10, align 4
  %175 = load ptr, ptr %9, align 8
  %176 = load i32, ptr @hf_wisun_usie_exclude_mask, align 4
  %177 = load ptr, ptr %6, align 8
  %178 = load i32, ptr %8, align 4
  %179 = load i32, ptr %10, align 4
  %180 = call ptr @proto_tree_add_item(ptr noundef %175, i32 noundef %176, ptr noundef %177, i32 noundef %178, i32 noundef %179, i32 noundef 0)
  %181 = load i32, ptr %10, align 4
  %182 = load i32, ptr %8, align 4
  %183 = add i32 %182, %181
  store i32 %183, ptr %8, align 4
  br label %185

184:                                              ; preds = %133
  br label %185

185:                                              ; preds = %184, %171, %170
  %186 = load i32, ptr %8, align 4
  store i32 %186, ptr %5, align 4
  store i32 1, ptr %13, align 4
  br label %187

187:                                              ; preds = %185, %88
  call void @llvm.lifetime.end.p0(i64 1, ptr %12) #7
  call void @llvm.lifetime.end.p0(i64 8, ptr %11) #7
  call void @llvm.lifetime.end.p0(i64 4, ptr %10) #7
  %188 = load i32, ptr %5, align 4
  ret i32 %188
}