; Function Attrs: null_pointer_is_valid sspstrong uwtable
define internal fastcc void @dissect_wisun_schedule_common(ptr noundef %0, ptr noundef %1, i32 noundef range(i32 3, 12) %2, ptr noundef %3) unnamed_addr #0 {
  %5 = tail call zeroext i8 @tvb_get_uint8(ptr noundef %0, i32 noundef %2)
  %6 = load i32, ptr @hf_wisun_usie_channel_control, align 4
  %7 = load i32, ptr @ett_wisun_usie_channel_control, align 4
  %8 = tail call ptr @proto_tree_add_bitmask_with_flags(ptr noundef %3, ptr noundef %0, i32 noundef %2, i32 noundef %6, i32 noundef %7, ptr noundef nonnull @dissect_wisun_schedule_common.fields_usie_channel, i32 noundef -2147483648, i32 noundef 0)
  %9 = add nuw nsw i32 %2, 1
  %10 = zext i8 %5 to i32
  %11 = and i32 %10, 7
  switch i32 %11, label %26 [
    i32 0, label %12
    i32 1, label %15
    i32 2, label %23
  ]

12:                                               ; preds = %4
  %13 = load i32, ptr @hf_wisun_usie_regulatory_domain, align 4
  %14 = tail call ptr @proto_tree_add_item(ptr noundef %3, i32 noundef %13, ptr noundef %0, i32 noundef %9, i32 noundef 1, i32 noundef -2147483648)
  br label %29

15:                                               ; preds = %4
  %16 = load i32, ptr @hf_wisun_usie_explicit, align 4
  %17 = load i32, ptr @ett_wisun_usie_explicit, align 4
  %18 = tail call ptr @proto_tree_add_bitmask(ptr noundef %3, ptr noundef %0, i32 noundef %9, i32 noundef %16, i32 noundef %17, ptr noundef nonnull @dissect_wisun_schedule_common.fields_usie_channel_plan_explicit, i32 noundef -2147483648)
  %19 = add nuw nsw i32 %2, 4
  %20 = tail call zeroext i8 @tvb_get_uint8(ptr noundef %0, i32 noundef %19)
  %.not = icmp ult i8 %20, 16
  br i1 %.not, label %29, label %21

21:                                               ; preds = %15
  %22 = tail call ptr @expert_add_info(ptr noundef %1, ptr noundef %18, ptr noundef nonnull @ei_wisun_usie_explicit_reserved_bits_not_zero)
  br label %29

23:                                               ; preds = %4
  %24 = load i32, ptr @hf_wisun_usie_regulatory_domain, align 4
  %25 = tail call ptr @proto_tree_add_item(ptr noundef %3, i32 noundef %24, ptr noundef %0, i32 noundef %9, i32 noundef 1, i32 noundef -2147483648)
  br label %29

26:                                               ; preds = %4
  %27 = tail call ptr @expert_add_info(ptr noundef %1, ptr noundef %3, ptr noundef nonnull @ei_wisun_usie_channel_plan_invalid)
  %28 = tail call i32 @tvb_reported_length(ptr noundef %0)
  br label %.loopexit

29:                                               ; preds = %15, %21, %23, %12
  %.sink99 = phi i32 [ 2, %23 ], [ 2, %12 ], [ 5, %21 ], [ 5, %15 ]
  %hf_wisun_usie_channel_plan_id.sink = phi ptr [ @hf_wisun_usie_channel_plan_id, %23 ], [ @hf_wisun_usie_operating_class, %12 ], [ @hf_wisun_usie_number_channels, %21 ], [ @hf_wisun_usie_number_channels, %15 ]
  %.sink98 = phi i32 [ 1, %23 ], [ 1, %12 ], [ 2, %21 ], [ 2, %15 ]
  %.sink = phi i32 [ 3, %23 ], [ 3, %12 ], [ 7, %21 ], [ 7, %15 ]
  %30 = add nuw nsw i32 %2, %.sink99
  %31 = load i32, ptr %hf_wisun_usie_channel_plan_id.sink, align 4
  %32 = tail call ptr @proto_tree_add_item(ptr noundef %3, i32 noundef %31, ptr noundef %0, i32 noundef %30, i32 noundef %.sink98, i32 noundef -2147483648)
  %33 = add nuw nsw i32 %2, %.sink
  %34 = lshr i32 %10, 3
  %35 = and i32 %34, 7
  switch i32 %35, label %.loopexit86 [
    i32 0, label %36
    i32 3, label %40
  ]

36:                                               ; preds = %29
  %37 = load i32, ptr @hf_wisun_usie_fixed_channel, align 4
  %38 = tail call ptr @proto_tree_add_item(ptr noundef %3, i32 noundef %37, ptr noundef %0, i32 noundef %33, i32 noundef 2, i32 noundef -2147483648)
  %39 = add nuw nsw i32 %33, 2
  br label %.loopexit86

40:                                               ; preds = %29
  %41 = tail call zeroext i8 @tvb_get_uint8(ptr noundef %0, i32 noundef %33)
  %42 = load i32, ptr @hf_wisun_usie_hop_count, align 4
  %43 = tail call ptr @proto_tree_add_item(ptr noundef %3, i32 noundef %42, ptr noundef %0, i32 noundef %33, i32 noundef 1, i32 noundef -2147483648)
  %.287 = add nuw nsw i32 %33, 1
  %.not8488 = icmp eq i8 %41, 0
  br i1 %.not8488, label %.loopexit86, label %.lr.ph.preheader

.lr.ph.preheader:                                 ; preds = %40
  %44 = zext i8 %41 to i32
  br label %.lr.ph

.lr.ph:                                           ; preds = %.lr.ph.preheader, %.lr.ph
  %.290 = phi i32 [ %.2, %.lr.ph ], [ %.287, %.lr.ph.preheader ]
  %.08289 = phi i32 [ %45, %.lr.ph ], [ %44, %.lr.ph.preheader ]
  %45 = add nsw i32 %.08289, -1
  %46 = load i32, ptr @hf_wisun_usie_hop_list, align 4
  %47 = tail call ptr @proto_tree_add_item(ptr noundef %3, i32 noundef %46, ptr noundef %0, i32 noundef %.290, i32 noundef 1, i32 noundef -2147483648)
  %.2 = add nuw nsw i32 %.290, 1
  %.not84 = icmp eq i32 %45, 0
  br i1 %.not84, label %.loopexit86, label %.lr.ph, !llvm.loop !13

.loopexit86:                                      ; preds = %.lr.ph, %40, %29, %36
  %.1 = phi i32 [ %33, %29 ], [ %39, %36 ], [ %.287, %40 ], [ %.2, %.lr.ph ]
  %48 = lshr i32 %10, 6
  switch i32 %48, label %.loopexit [
    i32 1, label %49
    i32 2, label %62
  ]

49:                                               ; preds = %.loopexit86
  %50 = tail call zeroext i8 @tvb_get_uint8(ptr noundef %0, i32 noundef %.1)
  %51 = load i32, ptr @hf_wisun_usie_number_ranges, align 4
  %52 = tail call ptr @proto_tree_add_item(ptr noundef %3, i32 noundef %51, ptr noundef %0, i32 noundef %.1, i32 noundef 1, i32 noundef -2147483648)
  %.not8591 = icmp eq i8 %50, 0
  br i1 %.not8591, label %.loopexit, label %.lr.ph94.preheader

.lr.ph94.preheader:                               ; preds = %49
  %53 = add i32 %.1, 1
  %54 = zext i8 %50 to i32
  br label %.lr.ph94

.lr.ph94:                                         ; preds = %.lr.ph94.preheader, %.lr.ph94
  %.393 = phi i32 [ %60, %.lr.ph94 ], [ %53, %.lr.ph94.preheader ]
  %.18392 = phi i32 [ %61, %.lr.ph94 ], [ %54, %.lr.ph94.preheader ]
  %55 = load i32, ptr @hf_wisun_usie_exclude_range_start, align 4
  %56 = tail call ptr @proto_tree_add_item(ptr noundef %3, i32 noundef %55, ptr noundef %0, i32 noundef %.393, i32 noundef 2, i32 noundef -2147483648)
  %57 = add nuw nsw i32 %.393, 2
  %58 = load i32, ptr @hf_wisun_usie_exclude_range_end, align 4
  %59 = tail call ptr @proto_tree_add_item(ptr noundef %3, i32 noundef %58, ptr noundef %0, i32 noundef %57, i32 noundef 2, i32 noundef -2147483648)
  %60 = add nuw nsw i32 %.393, 4
  %61 = add nsw i32 %.18392, -1
  %.not85 = icmp eq i32 %61, 0
  br i1 %.not85, label %.loopexit, label %.lr.ph94, !llvm.loop !14

62:                                               ; preds = %.loopexit86
  %63 = tail call i32 @tvb_reported_length_remaining(ptr noundef %0, i32 noundef %.1)
  %64 = load i32, ptr @hf_wisun_usie_exclude_mask, align 4
  %65 = tail call ptr @proto_tree_add_item(ptr noundef %3, i32 noundef %64, ptr noundef %0, i32 noundef %.1, i32 noundef %63, i32 noundef 0)
  br label %.loopexit

.loopexit:                                        ; preds = %.lr.ph94, %49, %62, %.loopexit86, %26
  ret void
}